target datalayout = "e-m:e-p270:32:32-p271:32:32-p272:64:64-i64:64-i128:128-f80:128-n8:16:32:64-S128"
target triple = "x86_64-pc-linux-gnu"

@.str.360 = private unnamed_addr constant [46 x i8] c"../cpython/Modules/_testlimitedcapi/unicode.c\00", align 1
@.str.371 = private unnamed_addr constant [5 x i8] c"(Nn)\00", align 1
@.str.372 = private unnamed_addr constant [2 x i8] c"O\00", align 1
@.str.373 = private unnamed_addr constant [27 x i8] c"size == UNINITIALIZED_SIZE\00", align 1
@__PRETTY_FUNCTION__.unicode_aswidecharstring = private unnamed_addr constant [59 x i8] c"PyObject *unicode_aswidecharstring(PyObject *, PyObject *)\00", align 1

; Function Attrs: nounwind uwtable
define internal ptr @unicode_aswidecharstring(ptr noundef %0, ptr noundef %1) #0 {
  %3 = alloca ptr, align 8
  %4 = alloca ptr, align 8
  %5 = alloca ptr, align 8
  %6 = alloca ptr, align 8
  %7 = alloca ptr, align 8
  %8 = alloca i64, align 8
  %9 = alloca ptr, align 8
  %10 = alloca i32, align 4
  store ptr %0, ptr %4, align 8, !tbaa !3
  store ptr %1, ptr %5, align 8, !tbaa !3
  call void @llvm.lifetime.start.p0(i64 8, ptr %6) #7
  call void @llvm.lifetime.start.p0(i64 8, ptr %7) #7
  call void @llvm.lifetime.start.p0(i64 8, ptr %8) #7
  store i64 236892191, ptr %8, align 8, !tbaa !12
  call void @llvm.lifetime.start.p0(i64 8, ptr %9) #7
  %11 = load ptr, ptr %5, align 8, !tbaa !3
  %12 = call i32 (ptr, ptr, ...) @PyArg_ParseTuple(ptr noundef %11, ptr noundef @.str.372, ptr noundef %6)
  %13 = icmp ne i32 %12, 0
  br i1 %13, label %15, label %14

14:                                               ; preds = %2
  store ptr null, ptr %3, align 8
  store i32 1, ptr %10, align 4
  br label %48

15:                                               ; preds = %2
  br label %16

16:                                               ; preds = %15
  %17 = load ptr, ptr %6, align 8, !tbaa !3
  %18 = call ptr @Py_GetConstantBorrowed(i32 noundef 0)
  %19 = icmp eq ptr %17, %18
  br i1 %19, label %20, label %21

20:                                               ; preds = %16
  store ptr null, ptr %6, align 8, !tbaa !3
  br label %21

21:                                               ; preds = %20, %16
  br label %22

22:                                               ; preds = %21
  br label %23

23:                                               ; preds = %22
  %24 = load ptr, ptr %6, align 8, !tbaa !3
  %25 = call ptr @PyUnicode_AsWideCharString(ptr noundef %24, ptr noundef %8)
  store ptr %25, ptr %9, align 8, !tbaa !14
  %26 = load ptr, ptr %9, align 8, !tbaa !14
  %27 = icmp eq ptr %26, null
  br i1 %27, label %28, label %35

28:                                               ; preds = %23
  %29 = load i64, ptr %8, align 8, !tbaa !12
  %30 = icmp eq i64 %29, 236892191
  br i1 %30, label %31, label %32

31:                                               ; preds = %28
  br label %34

32:                                               ; preds = %28
  call void @__assert_fail(ptr noundef @.str.373, ptr noundef @.str.360, i32 noundef 443, ptr noundef @__PRETTY_FUNCTION__.unicode_aswidecharstring) #8
  unreachable

33:                                               ; No predecessors!
  br label %34

34:                                               ; preds = %33, %31
  store ptr null, ptr %3, align 8
  store i32 1, ptr %10, align 4
  br label %48

35:                                               ; preds = %23
  %36 = load ptr, ptr %9, align 8, !tbaa !14
  %37 = load i64, ptr %8, align 8, !tbaa !12
  %38 = add i64 %37, 1
  %39 = call ptr @PyUnicode_FromWideChar(ptr noundef %36, i64 noundef %38)
  store ptr %39, ptr %7, align 8, !tbaa !3
  %40 = load ptr, ptr %9, align 8, !tbaa !14
  call void @PyMem_Free(ptr noundef %40)
  %41 = load ptr, ptr %7, align 8, !tbaa !3
  %42 = icmp eq ptr %41, null
  br i1 %42, label %43, label %44

43:                                               ; preds = %35
  store ptr null, ptr %3, align 8
  store i32 1, ptr %10, align 4
  br label %48

44:                                               ; preds = %35
  %45 = load ptr, ptr %7, align 8, !tbaa !3
  %46 = load i64, ptr %8, align 8, !tbaa !12
  %47 = call ptr (ptr, ...) @Py_BuildValue(ptr noundef @.str.371, ptr noundef %45, i64 noundef %46)
  store ptr %47, ptr %3, align 8
  store i32 1, ptr %10, align 4
  br label %48

48:                                               ; preds = %44, %43, %34, %14
  call void @llvm.lifetime.end.p0(i64 8, ptr %9) #7
  call void @llvm.lifetime.end.p0(i64 8, ptr %8) #7
  call void @llvm.lifetime.end.p0(i64 8, ptr %7) #7
  call void @llvm.lifetime.end.p0(i64 8, ptr %6) #7
  %49 = load ptr, ptr %3, align 8
  ret ptr %49
}