; Function Attrs: nounwind uwtable
define internal ptr @unicode_aswidecharstring(ptr readnone captures(none) %0, ptr noundef %1) #0 {
  %3 = alloca ptr, align 8
  %4 = alloca i64, align 8
  call void @llvm.lifetime.start.p0(i64 8, ptr nonnull %3) #4
  call void @llvm.lifetime.start.p0(i64 8, ptr nonnull %4) #4
  store i64 236892191, ptr %4, align 8, !tbaa !10
  %5 = call i32 (ptr, ptr, ...) @PyArg_ParseTuple(ptr noundef %1, ptr noundef nonnull @.str.372, ptr noundef nonnull %3) #4
  %.not = icmp eq i32 %5, 0
  br i1 %.not, label %26, label %6

6:                                                ; preds = %2
  %7 = load ptr, ptr %3, align 8, !tbaa !8
  %8 = call ptr @Py_GetConstantBorrowed(i32 noundef 0) #4
  %9 = icmp eq ptr %7, %8
  br i1 %9, label %10, label %._crit_edge

._crit_edge:                                      ; preds = %6
  %.pre = load ptr, ptr %3, align 8, !tbaa !8
  br label %11

10:                                               ; preds = %6
  store ptr null, ptr %3, align 8, !tbaa !8
  br label %11

11:                                               ; preds = %._crit_edge, %10
  %12 = phi ptr [ %.pre, %._crit_edge ], [ null, %10 ]
  %13 = call ptr @PyUnicode_AsWideCharString(ptr noundef %12, ptr noundef nonnull %4) #4
  %14 = icmp eq ptr %13, null
  %15 = load i64, ptr %4, align 8, !tbaa !10
  br i1 %14, label %16, label %19

16:                                               ; preds = %11
  %17 = icmp eq i64 %15, 236892191
  br i1 %17, label %26, label %18

18:                                               ; preds = %16
  call void @__assert_fail(ptr noundef nonnull @.str.373, ptr noundef nonnull @.str.360, i32 noundef 443, ptr noundef nonnull @__PRETTY_FUNCTION__.unicode_aswidecharstring) #5
  unreachable

19:                                               ; preds = %11
  %20 = add i64 %15, 1
  %21 = call ptr @PyUnicode_FromWideChar(ptr noundef nonnull %13, i64 noundef %20) #4
  call void @PyMem_Free(ptr noundef nonnull %13) #4
  %22 = icmp eq ptr %21, null
  br i1 %22, label %26, label %23

23:                                               ; preds = %19
  %24 = load i64, ptr %4, align 8, !tbaa !10
  %25 = call ptr (ptr, ...) @Py_BuildValue(ptr noundef nonnull @.str.371, ptr noundef nonnull %21, i64 noundef %24) #4
  br label %26

26:                                               ; preds = %19, %16, %2, %23
  %.0 = phi ptr [ %25, %23 ], [ null, %2 ], [ null, %16 ], [ null, %19 ]
  call void @llvm.lifetime.end.p0(i64 8, ptr nonnull %4) #4
  call void @llvm.lifetime.end.p0(i64 8, ptr nonnull %3) #4
  ret ptr %.0
}